; Function Attrs: mustprogress uwtable
define void @_ZN3nix16StorePathCommand3runENS_3refINS_5StoreEEEOSt6vectorINS_9StorePathESaIS5_EE(ptr noundef nonnull align 8 dereferenceable(480) %0, ptr nocapture noundef readonly %1, ptr nocapture noundef nonnull readonly align 8 dereferenceable(24) %2) unnamed_addr #4 align 2 personality ptr @__gxx_personality_v0 {
  %4 = alloca %"class.std::__cxx11::basic_string", align 8
  %5 = alloca %"class.std::allocator", align 1
  %6 = alloca %"class.nix::ref.92", align 8
  %7 = getelementptr inbounds i8, ptr %2, i64 8
  %8 = load ptr, ptr %7, align 8
  %9 = load ptr, ptr %2, align 8
  %10 = ptrtoint ptr %8 to i64
  %11 = ptrtoint ptr %9 to i64
  %12 = sub i64 %10, %11
  %.not = icmp eq i64 %12, 32
  br i1 %.not, label %21, label %13

13:                                               ; preds = %3
  %14 = tail call ptr @__cxa_allocate_exception(i64 376) #31
  call void @_ZNSaIcEC1Ev(ptr noundef nonnull align 1 dereferenceable(1) %5) #31
  invoke void @_ZNSt7__cxx1112basic_stringIcSt11char_traitsIcESaIcEEC2IS3_EEPKcRKS3_(ptr noundef nonnull align 8 dereferenceable(32) %4, ptr noundef nonnull @.str.34, ptr noundef nonnull align 1 dereferenceable(1) %5)
          to label %15 unwind label %.thread

15:                                               ; preds = %13
  invoke void @_ZN3nix10UsageErrorCI2NS_9BaseErrorEIJEEERKNSt7__cxx1112basic_stringIcSt11char_traitsIcESaIcEEEDpRKT_(ptr noundef nonnull align 8 dereferenceable(376) %14, ptr noundef nonnull align 8 dereferenceable(32) %4)
          to label %16 unwind label %18

16:                                               ; preds = %15
  invoke void @__cxa_throw(ptr nonnull %14, ptr nonnull @_ZTIN3nix10UsageErrorE, ptr nonnull @_ZN3nix10UsageErrorD2Ev) #32
          to label %77 unwind label %18

.thread:                                          ; preds = %13
  %17 = landingpad { ptr, i32 }
          cleanup
  call void @_ZNSaIcED1Ev(ptr noundef nonnull align 1 dereferenceable(1) %5) #31
  br label %20

18:                                               ; preds = %15, %16
  %.0 = phi i1 [ false, %16 ], [ true, %15 ]
  %19 = landingpad { ptr, i32 }
          cleanup
  call void @_ZNSt7__cxx1112basic_stringIcSt11char_traitsIcESaIcEED2Ev(ptr noundef nonnull align 8 dereferenceable(32) %4) #31
  call void @_ZNSaIcED1Ev(ptr noundef nonnull align 1 dereferenceable(1) %5) #31
  br i1 %.0, label %20, label %76

20:                                               ; preds = %.thread, %18
  %.pn15 = phi { ptr, i32 } [ %17, %.thread ], [ %19, %18 ]
  call void @__cxa_free_exception(ptr %14) #31
  br label %76

21:                                               ; preds = %3
  %22 = load ptr, ptr %1, align 8
  store ptr %22, ptr %6, align 8
  %23 = getelementptr inbounds i8, ptr %6, i64 8
  %24 = getelementptr inbounds i8, ptr %1, i64 8
  %25 = load ptr, ptr %24, align 8
  store ptr %25, ptr %23, align 8
  %.not.i.i.i.i = icmp eq ptr %25, null
  br i1 %.not.i.i.i.i, label %_ZN3nix3refINS_5StoreEEC2ERKS2_.exit, label %26

26:                                               ; preds = %21
  %27 = getelementptr inbounds i8, ptr %25, i64 8
  %28 = load i8, ptr @__libc_single_threaded, align 1
  %.not.i.i.i.i.i = icmp eq i8 %28, 0
  br i1 %.not.i.i.i.i.i, label %32, label %29

29:                                               ; preds = %26
  %30 = load i32, ptr %27, align 4
  %31 = add nsw i32 %30, 1
  store i32 %31, ptr %27, align 4
  br label %_ZN3nix3refINS_5StoreEEC2ERKS2_.exit

32:                                               ; preds = %26
  %33 = atomicrmw volatile add ptr %27, i32 1 acq_rel, align 4
  br label %_ZN3nix3refINS_5StoreEEC2ERKS2_.exit

_ZN3nix3refINS_5StoreEEC2ERKS2_.exit:             ; preds = %21, %29, %32
  %34 = load ptr, ptr %2, align 8
  %35 = load ptr, ptr %0, align 8
  %36 = getelementptr inbounds i8, ptr %35, i64 88
  %37 = load ptr, ptr %36, align 8
  invoke void %37(ptr noundef nonnull align 8 dereferenceable(480) %0, ptr noundef nonnull %6, ptr noundef nonnull align 8 dereferenceable(32) %34)
          to label %38 unwind label %74

38:                                               ; preds = %_ZN3nix3refINS_5StoreEEC2ERKS2_.exit
  %39 = load ptr, ptr %23, align 8
  %.not.i.i.i.i11 = icmp eq ptr %39, null
  br i1 %.not.i.i.i.i11, label %_ZN3nix3refINS_5StoreEED2Ev.exit, label %40

40:                                               ; preds = %38
  %41 = getelementptr inbounds i8, ptr %39, i64 8
  %42 = load atomic i64, ptr %41 acquire, align 8
  %43 = icmp eq i64 %42, 4294967297
  %44 = trunc i64 %42 to i32
  br i1 %43, label %45, label %50

45:                                               ; preds = %40
  store i32 0, ptr %41, align 8
  %46 = getelementptr inbounds i8, ptr %39, i64 12
  store i32 0, ptr %46, align 4
  %47 = load ptr, ptr %39, align 8
  %48 = getelementptr inbounds i8, ptr %47, i64 16
  %49 = load ptr, ptr %48, align 8
  call void %49(ptr noundef nonnull align 8 dereferenceable(16) %39) #31
  br label %_ZNSt16_Sp_counted_baseILN9__gnu_cxx12_Lock_policyE2EE24_M_release_last_use_coldEv.exit.sink.split.i.i.i.i.i

50:                                               ; preds = %40
  %51 = load i8, ptr @__libc_single_threaded, align 1
  %.not.i.i.i.i.i12 = icmp eq i8 %51, 0
  br i1 %.not.i.i.i.i.i12, label %54, label %52

52:                                               ; preds = %50
  %53 = add nsw i32 %44, -1
  store i32 %53, ptr %41, align 4
  br label %56

54:                                               ; preds = %50
  %55 = atomicrmw volatile add ptr %41, i32 -1 acq_rel, align 4
  br label %56

56:                                               ; preds = %54, %52
  %.0.i.i.i.i.i = phi i32 [ %44, %52 ], [ %55, %54 ]
  %57 = icmp eq i32 %.0.i.i.i.i.i, 1
  br i1 %57, label %58, label %_ZN3nix3refINS_5StoreEED2Ev.exit

58:                                               ; preds = %56
  %59 = load ptr, ptr %39, align 8
  %60 = getelementptr inbounds i8, ptr %59, i64 16
  %61 = load ptr, ptr %60, align 8
  call void %61(ptr noundef nonnull align 8 dereferenceable(16) %39) #31
  %62 = getelementptr inbounds i8, ptr %39, i64 12
  %63 = load i8, ptr @__libc_single_threaded, align 1
  %.not.i.i.i.i.i.i.i = icmp eq i8 %63, 0
  br i1 %.not.i.i.i.i.i.i.i, label %67, label %64

64:                                               ; preds = %58
  %65 = load i32, ptr %62, align 4
  %66 = add nsw i32 %65, -1
  store i32 %66, ptr %62, align 4
  br label %69

67:                                               ; preds = %58
  %68 = atomicrmw volatile add ptr %62, i32 -1 acq_rel, align 4
  br label %69

69:                                               ; preds = %67, %64
  %.0.i.i.i.i.i.i.i = phi i32 [ %65, %64 ], [ %68, %67 ]
  %70 = icmp eq i32 %.0.i.i.i.i.i.i.i, 1
  br i1 %70, label %_ZNSt16_Sp_counted_baseILN9__gnu_cxx12_Lock_policyE2EE24_M_release_last_use_coldEv.exit.sink.split.i.i.i.i.i, label %_ZN3nix3refINS_5StoreEED2Ev.exit

_ZNSt16_Sp_counted_baseILN9__gnu_cxx12_Lock_policyE2EE24_M_release_last_use_coldEv.exit.sink.split.i.i.i.i.i: ; preds = %69, %45
  %71 = load ptr, ptr %39, align 8
  %72 = getelementptr inbounds i8, ptr %71, i64 24
  %73 = load ptr, ptr %72, align 8
  call void %73(ptr noundef nonnull align 8 dereferenceable(16) %39) #31
  br label %_ZN3nix3refINS_5StoreEED2Ev.exit

_ZN3nix3refINS_5StoreEED2Ev.exit:                 ; preds = %38, %56, %69, %_ZNSt16_Sp_counted_baseILN9__gnu_cxx12_Lock_policyE2EE24_M_release_last_use_coldEv.exit.sink.split.i.i.i.i.i
  ret void

74:                                               ; preds = %_ZN3nix3refINS_5StoreEEC2ERKS2_.exit
  %75 = landingpad { ptr, i32 }
          cleanup
  call void @_ZN3nix3refINS_5StoreEED2Ev(ptr noundef nonnull align 8 dereferenceable(16) %6) #31
  br label %76

76:                                               ; preds = %18, %20, %74
  %.pn.pn = phi { ptr, i32 } [ %.pn15, %20 ], [ %19, %18 ], [ %75, %74 ]
  resume { ptr, i32 } %.pn.pn

77:                                               ; preds = %16
  unreachable
}